; ModuleID = '20/239.c'
source_filename = "20/239.c"
target datalayout = "e-m:e-p270:32:32-p271:32:32-p272:64:64-i64:64-f80:128-n8:16:32:64-S128"
target triple = "x86_64-pc-linux-gnu"

@.str = private unnamed_addr constant [6 x i8] c"%s %s\00", align 1
@.str.1 = private unnamed_addr constant [4 x i8] c"%s\0A\00", align 1

; Function Attrs: noinline nounwind uwtable
define dso_local void @main() #0 {
  %1 = alloca [10 x i8], align 1
  %2 = alloca [13 x i8], align 1
  %3 = alloca i32, align 4
  %4 = alloca i32, align 4
  %5 = alloca i32, align 4
  %6 = alloca i32, align 4
  %7 = bitcast [10 x i8]* %1 to i8*
  call void @llvm.memset.p0i8.i64(i8* align 1 %7, i8 0, i64 10, i1 false)
  %8 = bitcast [13 x i8]* %2 to i8*
  call void @llvm.memset.p0i8.i64(i8* align 1 %8, i8 0, i64 13, i1 false)
  store i32 0, i32* %5, align 4
  br label %9

9:                                                ; preds = %80, %0
  %10 = load i32, i32* %5, align 4
  %11 = icmp slt i32 %10, 10000
  br i1 %11, label %12, label %83

12:                                               ; preds = %9
  %13 = getelementptr inbounds [10 x i8], [10 x i8]* %1, i64 0, i64 0
  %14 = getelementptr inbounds [13 x i8], [13 x i8]* %2, i64 0, i64 0
  %15 = call i32 (i8*, ...) @__isoc99_scanf(i8* getelementptr inbounds ([6 x i8], [6 x i8]* @.str, i64 0, i64 0), i8* %13, i8* %14)
  store i32 0, i32* %3, align 4
  store i32 0, i32* %4, align 4
  br label %16

16:                                               ; preds = %36, %12
  %17 = load i32, i32* %3, align 4
  %18 = icmp slt i32 %17, 9
  br i1 %18, label %19, label %39

19:                                               ; preds = %16
  %20 = load i32, i32* %4, align 4
  %21 = sext i32 %20 to i64
  %22 = getelementptr inbounds [10 x i8], [10 x i8]* %1, i64 0, i64 %21
  %23 = load i8, i8* %22, align 1
  %24 = sext i8 %23 to i32
  %25 = load i32, i32* %3, align 4
  %26 = add nsw i32 %25, 1
  %27 = sext i32 %26 to i64
  %28 = getelementptr inbounds [10 x i8], [10 x i8]* %1, i64 0, i64 %27
  %29 = load i8, i8* %28, align 1
  %30 = sext i8 %29 to i32
  %31 = icmp slt i32 %24, %30
  br i1 %31, label %32, label %35

32:                                               ; preds = %19
  %33 = load i32, i32* %3, align 4
  %34 = add nsw i32 %33, 1
  store i32 %34, i32* %4, align 4
  br label %35

35:                                               ; preds = %32, %19
  br label %36

36:                                               ; preds = %35
  %37 = load i32, i32* %3, align 4
  %38 = add nsw i32 %37, 1
  store i32 %38, i32* %3, align 4
  br label %16

39:                                               ; preds = %16
  %40 = load i32, i32* %4, align 4
  %41 = add nsw i32 %40, 1
  store i32 %41, i32* %3, align 4
  store i32 3, i32* %6, align 4
  br label %42

42:                                               ; preds = %56, %39
  %43 = load i32, i32* %3, align 4
  %44 = icmp slt i32 %43, 10
  br i1 %44, label %45, label %61

45:                                               ; preds = %42
  %46 = load i32, i32* %3, align 4
  %47 = sext i32 %46 to i64
  %48 = getelementptr inbounds [10 x i8], [10 x i8]* %1, i64 0, i64 %47
  %49 = load i8, i8* %48, align 1
  %50 = load i32, i32* %6, align 4
  %51 = sext i32 %50 to i64
  %52 = getelementptr inbounds [13 x i8], [13 x i8]* %2, i64 0, i64 %51
  store i8 %49, i8* %52, align 1
  %53 = load i32, i32* %3, align 4
  %54 = sext i32 %53 to i64
  %55 = getelementptr inbounds [10 x i8], [10 x i8]* %1, i64 0, i64 %54
  store i8 0, i8* %55, align 1
  br label %56

56:                                               ; preds = %45
  %57 = load i32, i32* %3, align 4
  %58 = add nsw i32 %57, 1
  store i32 %58, i32* %3, align 4
  %59 = load i32, i32* %6, align 4
  %60 = add nsw i32 %59, 1
  store i32 %60, i32* %6, align 4
  br label %42

61:                                               ; preds = %42
  %62 = getelementptr inbounds [10 x i8], [10 x i8]* %1, i64 0, i64 0
  %63 = getelementptr inbounds [13 x i8], [13 x i8]* %2, i64 0, i64 0
  %64 = call i8* @strcat(i8* %62, i8* %63) #4
  %65 = call i32 (i8*, ...) @printf(i8* getelementptr inbounds ([4 x i8], [4 x i8]* @.str.1, i64 0, i64 0), i8* %64)
  store i32 0, i32* %3, align 4
  br label %66

66:                                               ; preds = %76, %61
  %67 = load i32, i32* %3, align 4
  %68 = icmp slt i32 %67, 13
  br i1 %68, label %69, label %79

69:                                               ; preds = %66
  %70 = load i32, i32* %3, align 4
  %71 = sext i32 %70 to i64
  %72 = getelementptr inbounds [10 x i8], [10 x i8]* %1, i64 0, i64 %71
  store i8 0, i8* %72, align 1
  %73 = load i32, i32* %3, align 4
  %74 = sext i32 %73 to i64
  %75 = getelementptr inbounds [13 x i8], [13 x i8]* %2, i64 0, i64 %74
  store i8 0, i8* %75, align 1
  br label %76

76:                                               ; preds = %69
  %77 = load i32, i32* %3, align 4
  %78 = add nsw i32 %77, 1
  store i32 %78, i32* %3, align 4
  br label %66

79:                                               ; preds = %66
  br label %80

80:                                               ; preds = %79
  %81 = load i32, i32* %5, align 4
  %82 = add nsw i32 %81, 1
  store i32 %82, i32* %5, align 4
  br label %9

83:                                               ; preds = %9
  ret void
}

; Function Attrs: argmemonly nounwind willreturn
declare void @llvm.memset.p0i8.i64(i8* nocapture writeonly, i8, i64, i1 immarg) #1

declare dso_local i32 @__isoc99_scanf(i8*, ...) #2

declare dso_local i32 @printf(i8*, ...) #2

; Function Attrs: nounwind
declare dso_local i8* @strcat(i8*, i8*) #3


!llvm.module.flags = !{!0}
!llvm.ident = !{!1}

!0 = !{i32 1, !"wchar_size", i32 4}
!1 = !{!"clang version 10.0.0-4ubuntu1 "}
